target datalayout = "e-m:e-p270:32:32-p271:32:32-p272:64:64-i64:64-i128:128-f80:128-n8:16:32:64-S128"
target triple = "x86_64-pc-linux-gnu"

%struct.Expr = type { i32 }
%struct.OpExpr = type { %struct.Expr, i32, i32, i32, i8, i32, i32, ptr, i32 }
%struct.Node = type { i32 }

; Function Attrs: inlinehint nounwind uwtable
define internal ptr @newNode(i64 noundef %0, i32 noundef %1) #7 {
  %3 = alloca i64, align 8
  %4 = alloca i32, align 4
  %5 = alloca ptr, align 8
  store i64 %0, ptr %3, align 8
  store i32 %1, ptr %4, align 4
  call void @llvm.lifetime.start.p0(i64 8, ptr %5) #9
  %6 = load i64, ptr %3, align 8
  %7 = call ptr @palloc0(i64 noundef %6)
  store ptr %7, ptr %5, align 8
  %8 = load i32, ptr %4, align 4
  %9 = load ptr, ptr %5, align 8
  %10 = getelementptr inbounds nuw %struct.Node, ptr %9, i32 0, i32 0
  store i32 %8, ptr %10, align 4
  %11 = load ptr, ptr %5, align 8
  call void @llvm.lifetime.end.p0(i64 8, ptr %5) #9
  ret ptr %11
}

; Function Attrs: nounwind uwtable
define internal ptr @_readNullIfExpr() #0 {
  %1 = alloca ptr, align 8
  %2 = alloca ptr, align 8
  %3 = alloca i32, align 4
  call void @llvm.lifetime.start.p0(i64 8, ptr %1) #9
  %4 = call ptr @newNode(i64 noundef 48, i32 noundef 19)
  store ptr %4, ptr %1, align 8
  call void @llvm.lifetime.start.p0(i64 8, ptr %2) #9
  call void @llvm.lifetime.start.p0(i64 4, ptr %3) #9
  %5 = call ptr @pg_strtok(ptr noundef %3)
  store ptr %5, ptr %2, align 8
  %6 = call ptr @pg_strtok(ptr noundef %3)
  store ptr %6, ptr %2, align 8
  %7 = load ptr, ptr %2, align 8
  %8 = call i64 @strtoul(ptr noundef %7, ptr noundef null, i32 noundef 10) #9
  %9 = trunc i64 %8 to i32
  %10 = load ptr, ptr %1, align 8
  %11 = getelementptr inbounds nuw %struct.OpExpr, ptr %10, i32 0, i32 1
  store i32 %9, ptr %11, align 4
  %12 = call ptr @pg_strtok(ptr noundef %3)
  store ptr %12, ptr %2, align 8
  %13 = call ptr @pg_strtok(ptr noundef %3)
  store ptr %13, ptr %2, align 8
  %14 = load ptr, ptr %2, align 8
  %15 = call i64 @strtoul(ptr noundef %14, ptr noundef null, i32 noundef 10) #9
  %16 = trunc i64 %15 to i32
  %17 = load ptr, ptr %1, align 8
  %18 = getelementptr inbounds nuw %struct.OpExpr, ptr %17, i32 0, i32 2
  store i32 %16, ptr %18, align 8
  %19 = call ptr @pg_strtok(ptr noundef %3)
  store ptr %19, ptr %2, align 8
  %20 = call ptr @pg_strtok(ptr noundef %3)
  store ptr %20, ptr %2, align 8
  %21 = load ptr, ptr %2, align 8
  %22 = call i64 @strtoul(ptr noundef %21, ptr noundef null, i32 noundef 10) #9
  %23 = trunc i64 %22 to i32
  %24 = load ptr, ptr %1, align 8
  %25 = getelementptr inbounds nuw %struct.OpExpr, ptr %24, i32 0, i32 3
  store i32 %23, ptr %25, align 4
  %26 = call ptr @pg_strtok(ptr noundef %3)
  store ptr %26, ptr %2, align 8
  %27 = call ptr @pg_strtok(ptr noundef %3)
  store ptr %27, ptr %2, align 8
  %28 = load ptr, ptr %2, align 8
  %29 = load i8, ptr %28, align 1
  %30 = sext i8 %29 to i32
  %31 = icmp eq i32 %30, 116
  %32 = select i1 %31, i32 1, i32 0
  %33 = icmp ne i32 %32, 0
  %34 = load ptr, ptr %1, align 8
  %35 = getelementptr inbounds nuw %struct.OpExpr, ptr %34, i32 0, i32 4
  %36 = zext i1 %33 to i8
  store i8 %36, ptr %35, align 8
  %37 = call ptr @pg_strtok(ptr noundef %3)
  store ptr %37, ptr %2, align 8
  %38 = call ptr @pg_strtok(ptr noundef %3)
  store ptr %38, ptr %2, align 8
  %39 = load ptr, ptr %2, align 8
  %40 = call i64 @strtoul(ptr noundef %39, ptr noundef null, i32 noundef 10) #9
  %41 = trunc i64 %40 to i32
  %42 = load ptr, ptr %1, align 8
  %43 = getelementptr inbounds nuw %struct.OpExpr, ptr %42, i32 0, i32 5
  store i32 %41, ptr %43, align 4
  %44 = call ptr @pg_strtok(ptr noundef %3)
  store ptr %44, ptr %2, align 8
  %45 = call ptr @pg_strtok(ptr noundef %3)
  store ptr %45, ptr %2, align 8
  %46 = load ptr, ptr %2, align 8
  %47 = call i64 @strtoul(ptr noundef %46, ptr noundef null, i32 noundef 10) #9
  %48 = trunc i64 %47 to i32
  %49 = load ptr, ptr %1, align 8
  %50 = getelementptr inbounds nuw %struct.OpExpr, ptr %49, i32 0, i32 6
  store i32 %48, ptr %50, align 8
  %51 = call ptr @pg_strtok(ptr noundef %3)
  store ptr %51, ptr %2, align 8
  %52 = call ptr @nodeRead(ptr noundef null, i32 noundef 0)
  %53 = load ptr, ptr %1, align 8
  %54 = getelementptr inbounds nuw %struct.OpExpr, ptr %53, i32 0, i32 7
  store ptr %52, ptr %54, align 8
  %55 = call ptr @pg_strtok(ptr noundef %3)
  store ptr %55, ptr %2, align 8
  %56 = call ptr @pg_strtok(ptr noundef %3)
  store ptr %56, ptr %2, align 8
  %57 = load ptr, ptr %1, align 8
  %58 = getelementptr inbounds nuw %struct.OpExpr, ptr %57, i32 0, i32 8
  store i32 -1, ptr %58, align 8
  %59 = load ptr, ptr %1, align 8
  call void @llvm.lifetime.end.p0(i64 4, ptr %3) #9
  call void @llvm.lifetime.end.p0(i64 8, ptr %2) #9
  call void @llvm.lifetime.end.p0(i64 8, ptr %1) #9
  ret ptr %59
}